target datalayout = "e-m:e-p270:32:32-p271:32:32-p272:64:64-i64:64-i128:128-f80:128-n8:16:32:64-S128"
target triple = "x86_64-pc-linux-gnu"

%"class.llvm::MachineInstr" = type <{ %"class.llvm::ilist_node_with_parent", ptr, ptr, ptr, [3 x i8], %"class.llvm::ArrayRecycler<llvm::MachineOperand>::Capacity", i32, %"class.llvm::PointerSumType", %"class.llvm::DebugLoc", i32, i16, [2 x i8] }>
%"class.llvm::ilist_node_with_parent" = type { %"class.llvm::ilist_node" }
%"class.llvm::ilist_node" = type { %"class.llvm::ilist_node_impl" }
%"class.llvm::ilist_node_impl" = type { %"class.llvm::ilist_node_base" }
%"class.llvm::ilist_node_base" = type { %"class.llvm::ilist_detail::node_base_prevnext" }
%"class.llvm::ilist_detail::node_base_prevnext" = type { %"class.llvm::PointerIntPair", ptr }
%"class.llvm::PointerIntPair" = type { %"struct.llvm::detail::PunnedPointer" }
%"struct.llvm::detail::PunnedPointer" = type { [8 x i8] }
%"class.llvm::ArrayRecycler<llvm::MachineOperand>::Capacity" = type { i8 }
%"class.llvm::PointerSumType" = type { %"union.llvm::PointerSumType<llvm::MachineInstr::ExtraInfoInlineKinds, llvm::PointerSumTypeMember<0, llvm::MachineMemOperand *>, llvm::PointerSumTypeMember<1, llvm::MCSymbol *>, llvm::PointerSumTypeMember<2, llvm::MCSymbol *>, llvm::PointerSumTypeMember<3, llvm::MachineInstr::ExtraInfo *>>::StorageT" }
%"union.llvm::PointerSumType<llvm::MachineInstr::ExtraInfoInlineKinds, llvm::PointerSumTypeMember<0, llvm::MachineMemOperand *>, llvm::PointerSumTypeMember<1, llvm::MCSymbol *>, llvm::PointerSumTypeMember<2, llvm::MCSymbol *>, llvm::PointerSumTypeMember<3, llvm::MachineInstr::ExtraInfo *>>::StorageT" = type { i64 }
%"class.llvm::DebugLoc" = type { %"class.llvm::TypedTrackingMDRef" }
%"class.llvm::TypedTrackingMDRef" = type { %"class.llvm::TrackingMDRef" }
%"class.llvm::TrackingMDRef" = type { ptr }
%"class.llvm::MachineFunction" = type <{ ptr, ptr, ptr, ptr, ptr, ptr, ptr, ptr, ptr, ptr, ptr, ptr, %"class.std::vector", i32, [4 x i8], %"class.llvm::BumpPtrAllocatorImpl", %"class.llvm::Recycler", %"class.llvm::ArrayRecycler", %"class.llvm::Recycler.11", %"class.llvm::iplist", i32, %"struct.llvm::Align", i8, i8, i8, %"class.llvm::MachineFunctionProperties", %"class.std::unique_ptr", %"class.std::vector.18", %"class.std::vector.23", %"class.std::vector.23", %"class.std::vector.28", %"class.llvm::DenseMap", %"class.llvm::DenseMap.33", %"class.llvm::DenseMap.36", %"class.std::vector.39", i8, i8, i8, i8, i8, i8, [2 x i8], i32, i32, %"class.std::vector.44", %"class.std::vector.49", %"class.std::vector.49", i32, [4 x i8], ptr, ptr, %"class.llvm::DenseMap.54", %"class.llvm::SmallVector.57", i32, [4 x i8], %"class.llvm::SmallVector.62", %"class.llvm::DenseMap.67", i8, [7 x i8] }>
%"class.std::vector" = type { %"struct.std::_Vector_base" }
%"struct.std::_Vector_base" = type { %"struct.std::_Vector_base<llvm::MachineBasicBlock *, std::allocator<llvm::MachineBasicBlock *>>::_Vector_impl" }
%"struct.std::_Vector_base<llvm::MachineBasicBlock *, std::allocator<llvm::MachineBasicBlock *>>::_Vector_impl" = type { %"struct.std::_Vector_base<llvm::MachineBasicBlock *, std::allocator<llvm::MachineBasicBlock *>>::_Vector_impl_data" }
%"struct.std::_Vector_base<llvm::MachineBasicBlock *, std::allocator<llvm::MachineBasicBlock *>>::_Vector_impl_data" = type { ptr, ptr, ptr }
%"class.llvm::BumpPtrAllocatorImpl" = type { ptr, ptr, %"class.llvm::SmallVector", %"class.llvm::SmallVector.1", i64, i64 }
%"class.llvm::SmallVector" = type { %"class.llvm::SmallVectorImpl", %"struct.llvm::SmallVectorStorage" }
%"class.llvm::SmallVectorImpl" = type { %"class.llvm::SmallVectorTemplateBase" }
%"class.llvm::SmallVectorTemplateBase" = type { %"class.llvm::SmallVectorTemplateCommon" }
%"class.llvm::SmallVectorTemplateCommon" = type { %"class.llvm::SmallVectorBase" }
%"class.llvm::SmallVectorBase" = type { ptr, i32, i32 }
%"struct.llvm::SmallVectorStorage" = type { [32 x i8] }
%"class.llvm::SmallVector.1" = type { %"class.llvm::SmallVectorImpl.2" }
%"class.llvm::SmallVectorImpl.2" = type { %"class.llvm::SmallVectorTemplateBase.3" }
%"class.llvm::SmallVectorTemplateBase.3" = type { %"class.llvm::SmallVectorTemplateCommon.4" }
%"class.llvm::SmallVectorTemplateCommon.4" = type { %"class.llvm::SmallVectorBase" }
%"class.llvm::Recycler" = type { ptr }
%"class.llvm::ArrayRecycler" = type { %"class.llvm::SmallVector.6" }
%"class.llvm::SmallVector.6" = type { %"class.llvm::SmallVectorImpl.7", %"struct.llvm::SmallVectorStorage.10" }
%"class.llvm::SmallVectorImpl.7" = type { %"class.llvm::SmallVectorTemplateBase.8" }
%"class.llvm::SmallVectorTemplateBase.8" = type { %"class.llvm::SmallVectorTemplateCommon.9" }
%"class.llvm::SmallVectorTemplateCommon.9" = type { %"class.llvm::SmallVectorBase" }
%"struct.llvm::SmallVectorStorage.10" = type { [64 x i8] }
%"class.llvm::Recycler.11" = type { ptr }
%"class.llvm::iplist" = type { %"class.llvm::iplist_impl" }
%"class.llvm::iplist_impl" = type { %"class.llvm::simple_ilist" }
%"class.llvm::simple_ilist" = type { %"class.llvm::ilist_sentinel" }
%"class.llvm::ilist_sentinel" = type { %"class.llvm::ilist_node_impl.12" }
%"class.llvm::ilist_node_impl.12" = type { %"class.llvm::ilist_node_base.13" }
%"class.llvm::ilist_node_base.13" = type { %"class.llvm::ilist_detail::node_base_prevnext.14" }
%"class.llvm::ilist_detail::node_base_prevnext.14" = type { ptr, ptr }
%"struct.llvm::Align" = type { i8 }
%"class.llvm::MachineFunctionProperties" = type { %"class.std::bitset" }
%"class.std::bitset" = type { %"struct.std::_Base_bitset" }
%"struct.std::_Base_bitset" = type { i64 }
%"class.std::unique_ptr" = type { %"struct.std::__uniq_ptr_data" }
%"struct.std::__uniq_ptr_data" = type { %"class.std::__uniq_ptr_impl" }
%"class.std::__uniq_ptr_impl" = type { %"class.std::tuple" }
%"class.std::tuple" = type { %"struct.std::_Tuple_impl" }
%"struct.std::_Tuple_impl" = type { %"struct.std::_Head_base.17" }
%"struct.std::_Head_base.17" = type { ptr }
%"class.std::vector.18" = type { %"struct.std::_Vector_base.19" }
%"struct.std::_Vector_base.19" = type { %"struct.std::_Vector_base<llvm::MCCFIInstruction, std::allocator<llvm::MCCFIInstruction>>::_Vector_impl" }
%"struct.std::_Vector_base<llvm::MCCFIInstruction, std::allocator<llvm::MCCFIInstruction>>::_Vector_impl" = type { %"struct.std::_Vector_base<llvm::MCCFIInstruction, std::allocator<llvm::MCCFIInstruction>>::_Vector_impl_data" }
%"struct.std::_Vector_base<llvm::MCCFIInstruction, std::allocator<llvm::MCCFIInstruction>>::_Vector_impl_data" = type { ptr, ptr, ptr }
%"class.std::vector.23" = type { %"struct.std::_Vector_base.24" }
%"struct.std::_Vector_base.24" = type { %"struct.std::_Vector_base<llvm::MCSymbol *, std::allocator<llvm::MCSymbol *>>::_Vector_impl" }
%"struct.std::_Vector_base<llvm::MCSymbol *, std::allocator<llvm::MCSymbol *>>::_Vector_impl" = type { %"struct.std::_Vector_base<llvm::MCSymbol *, std::allocator<llvm::MCSymbol *>>::_Vector_impl_data" }
%"struct.std::_Vector_base<llvm::MCSymbol *, std::allocator<llvm::MCSymbol *>>::_Vector_impl_data" = type { ptr, ptr, ptr }
%"class.std::vector.28" = type { %"struct.std::_Vector_base.29" }
%"struct.std::_Vector_base.29" = type { %"struct.std::_Vector_base<llvm::LandingPadInfo, std::allocator<llvm::LandingPadInfo>>::_Vector_impl" }
%"struct.std::_Vector_base<llvm::LandingPadInfo, std::allocator<llvm::LandingPadInfo>>::_Vector_impl" = type { %"struct.std::_Vector_base<llvm::LandingPadInfo, std::allocator<llvm::LandingPadInfo>>::_Vector_impl_data" }
%"struct.std::_Vector_base<llvm::LandingPadInfo, std::allocator<llvm::LandingPadInfo>>::_Vector_impl_data" = type { ptr, ptr, ptr }
%"class.llvm::DenseMap" = type <{ ptr, i32, i32, i32, [4 x i8] }>
%"class.llvm::DenseMap.33" = type <{ ptr, i32, i32, i32, [4 x i8] }>
%"class.llvm::DenseMap.36" = type <{ ptr, i32, i32, i32, [4 x i8] }>
%"class.std::vector.39" = type { %"struct.std::_Vector_base.40" }
%"struct.std::_Vector_base.40" = type { %"struct.std::_Vector_base<std::pair<llvm::MCSymbol *, llvm::MDNode *>, std::allocator<std::pair<llvm::MCSymbol *, llvm::MDNode *>>>::_Vector_impl" }
%"struct.std::_Vector_base<std::pair<llvm::MCSymbol *, llvm::MDNode *>, std::allocator<std::pair<llvm::MCSymbol *, llvm::MDNode *>>>::_Vector_impl" = type { %"struct.std::_Vector_base<std::pair<llvm::MCSymbol *, llvm::MDNode *>, std::allocator<std::pair<llvm::MCSymbol *, llvm::MDNode *>>>::_Vector_impl_data" }
%"struct.std::_Vector_base<std::pair<llvm::MCSymbol *, llvm::MDNode *>, std::allocator<std::pair<llvm::MCSymbol *, llvm::MDNode *>>>::_Vector_impl_data" = type { ptr, ptr, ptr }
%"class.std::vector.44" = type { %"struct.std::_Vector_base.45" }
%"struct.std::_Vector_base.45" = type { %"struct.std::_Vector_base<const llvm::GlobalValue *, std::allocator<const llvm::GlobalValue *>>::_Vector_impl" }
%"struct.std::_Vector_base<const llvm::GlobalValue *, std::allocator<const llvm::GlobalValue *>>::_Vector_impl" = type { %"struct.std::_Vector_base<const llvm::GlobalValue *, std::allocator<const llvm::GlobalValue *>>::_Vector_impl_data" }
%"struct.std::_Vector_base<const llvm::GlobalValue *, std::allocator<const llvm::GlobalValue *>>::_Vector_impl_data" = type { ptr, ptr, ptr }
%"class.std::vector.49" = type { %"struct.std::_Vector_base.50" }
%"struct.std::_Vector_base.50" = type { %"struct.std::_Vector_base<unsigned int, std::allocator<unsigned int>>::_Vector_impl" }
%"struct.std::_Vector_base<unsigned int, std::allocator<unsigned int>>::_Vector_impl" = type { %"struct.std::_Vector_base<unsigned int, std::allocator<unsigned int>>::_Vector_impl_data" }
%"struct.std::_Vector_base<unsigned int, std::allocator<unsigned int>>::_Vector_impl_data" = type { ptr, ptr, ptr }
%"class.llvm::DenseMap.54" = type <{ ptr, i32, i32, i32, [4 x i8] }>
%"class.llvm::SmallVector.57" = type { %"class.llvm::SmallVectorImpl.58", %"struct.llvm::SmallVectorStorage.61" }
%"class.llvm::SmallVectorImpl.58" = type { %"class.llvm::SmallVectorTemplateBase.59" }
%"class.llvm::SmallVectorTemplateBase.59" = type { %"class.llvm::SmallVectorTemplateCommon.60" }
%"class.llvm::SmallVectorTemplateCommon.60" = type { %"class.llvm::SmallVectorBase" }
%"struct.llvm::SmallVectorStorage.61" = type { [128 x i8] }
%"class.llvm::SmallVector.62" = type { %"class.llvm::SmallVectorImpl.63", %"struct.llvm::SmallVectorStorage.66" }
%"class.llvm::SmallVectorImpl.63" = type { %"class.llvm::SmallVectorTemplateBase.64" }
%"class.llvm::SmallVectorTemplateBase.64" = type { %"class.llvm::SmallVectorTemplateCommon.65" }
%"class.llvm::SmallVectorTemplateCommon.65" = type { %"class.llvm::SmallVectorBase" }
%"struct.llvm::SmallVectorStorage.66" = type { [160 x i8] }
%"class.llvm::DenseMap.67" = type <{ ptr, i32, i32, i32, [4 x i8] }>
%"class.llvm::MachineBasicBlock" = type { %"class.llvm::ilist_node_with_parent.74", ptr, i32, i32, ptr, %"class.llvm::iplist.76", %"class.llvm::SmallVector.83", %"class.llvm::SmallVector.88", %"class.std::vector.90", %"class.std::optional", %"class.std::vector.95", %"struct.llvm::Align", i32, i8, i8, ptr, i8, i8, i8, i8, i8, [3 x i8], %"class.std::optional.100", %"struct.llvm::MBBSectionID", i8, i8, i8, ptr, ptr, ptr }
%"class.llvm::ilist_node_with_parent.74" = type { %"class.llvm::ilist_node.75" }
%"class.llvm::ilist_node.75" = type { %"class.llvm::ilist_node_impl.12" }
%"class.llvm::iplist.76" = type { %"class.llvm::iplist_impl.77" }
%"class.llvm::iplist_impl.77" = type { %"struct.llvm::ilist_traits.78", %"class.llvm::simple_ilist.79" }
%"struct.llvm::ilist_traits.78" = type { ptr }
%"class.llvm::simple_ilist.79" = type { %"class.llvm::ilist_sentinel.82" }
%"class.llvm::ilist_sentinel.82" = type { %"class.llvm::ilist_node_impl" }
%"class.llvm::SmallVector.83" = type { %"class.llvm::SmallVectorImpl.84", %"struct.llvm::SmallVectorStorage.87" }
%"class.llvm::SmallVectorImpl.84" = type { %"class.llvm::SmallVectorTemplateBase.85" }
%"class.llvm::SmallVectorTemplateBase.85" = type { %"class.llvm::SmallVectorTemplateCommon.86" }
%"class.llvm::SmallVectorTemplateCommon.86" = type { %"class.llvm::SmallVectorBase" }
%"struct.llvm::SmallVectorStorage.87" = type { [32 x i8] }
%"class.llvm::SmallVector.88" = type { %"class.llvm::SmallVectorImpl.84", %"struct.llvm::SmallVectorStorage.89" }
%"struct.llvm::SmallVectorStorage.89" = type { [16 x i8] }
%"class.std::vector.90" = type { %"struct.std::_Vector_base.91" }
%"struct.std::_Vector_base.91" = type { %"struct.std::_Vector_base<llvm::BranchProbability, std::allocator<llvm::BranchProbability>>::_Vector_impl" }
%"struct.std::_Vector_base<llvm::BranchProbability, std::allocator<llvm::BranchProbability>>::_Vector_impl" = type { %"struct.std::_Vector_base<llvm::BranchProbability, std::allocator<llvm::BranchProbability>>::_Vector_impl_data" }
%"struct.std::_Vector_base<llvm::BranchProbability, std::allocator<llvm::BranchProbability>>::_Vector_impl_data" = type { ptr, ptr, ptr }
%"class.std::optional" = type { %"struct.std::_Optional_base" }
%"struct.std::_Optional_base" = type { %"struct.std::_Optional_payload" }
%"struct.std::_Optional_payload" = type { %"struct.std::_Optional_payload_base.base", [7 x i8] }
%"struct.std::_Optional_payload_base.base" = type <{ %"union.std::_Optional_payload_base<unsigned long>::_Storage", i8 }>
%"union.std::_Optional_payload_base<unsigned long>::_Storage" = type { i64 }
%"class.std::vector.95" = type { %"struct.std::_Vector_base.96" }
%"struct.std::_Vector_base.96" = type { %"struct.std::_Vector_base<llvm::MachineBasicBlock::RegisterMaskPair, std::allocator<llvm::MachineBasicBlock::RegisterMaskPair>>::_Vector_impl" }
%"struct.std::_Vector_base<llvm::MachineBasicBlock::RegisterMaskPair, std::allocator<llvm::MachineBasicBlock::RegisterMaskPair>>::_Vector_impl" = type { %"struct.std::_Vector_base<llvm::MachineBasicBlock::RegisterMaskPair, std::allocator<llvm::MachineBasicBlock::RegisterMaskPair>>::_Vector_impl_data" }
%"struct.std::_Vector_base<llvm::MachineBasicBlock::RegisterMaskPair, std::allocator<llvm::MachineBasicBlock::RegisterMaskPair>>::_Vector_impl_data" = type { ptr, ptr, ptr }
%"class.std::optional.100" = type { %"struct.std::_Optional_base.101" }
%"struct.std::_Optional_base.101" = type { %"struct.std::_Optional_payload.103" }
%"struct.std::_Optional_payload.103" = type { %"struct.std::_Optional_payload_base.base.105", [3 x i8] }
%"struct.std::_Optional_payload_base.base.105" = type <{ %"union.std::_Optional_payload_base<llvm::UniqueBBID>::_Storage", i8 }>
%"union.std::_Optional_payload_base<llvm::UniqueBBID>::_Storage" = type { %"struct.llvm::UniqueBBID" }
%"struct.llvm::UniqueBBID" = type { i32, i32 }
%"struct.llvm::MBBSectionID" = type { i32, i32 }

; Function Attrs: mustprogress nounwind uwtable
define linkonce_odr hidden noundef nonnull align 8 dereferenceable(512) ptr @_ZNK4llvm15MachineFunction10getRegInfoEv(ptr noundef nonnull align 8 dereferenceable(1041) %0) #0 comdat align 2 {
  %2 = alloca ptr, align 8
  store ptr %0, ptr %2, align 8
  %3 = load ptr, ptr %2, align 8
  %4 = getelementptr inbounds nuw %"class.llvm::MachineFunction", ptr %3, i32 0, i32 4
  %5 = load ptr, ptr %4, align 8
  ret ptr %5
}

; Function Attrs: mustprogress nounwind uwtable
define linkonce_odr hidden noundef ptr @_ZNK4llvm17MachineBasicBlock9getParentEv(ptr noundef nonnull align 8 dereferenceable(288) %0) #0 comdat align 2 {
  %2 = alloca ptr, align 8
  store ptr %0, ptr %2, align 8
  %3 = load ptr, ptr %2, align 8
  %4 = getelementptr inbounds nuw %"class.llvm::MachineBasicBlock", ptr %3, i32 0, i32 4
  %5 = load ptr, ptr %4, align 8
  ret ptr %5
}

; Function Attrs: mustprogress nounwind uwtable
define linkonce_odr hidden noundef ptr @_ZNK4llvm12MachineInstr9getParentEv(ptr noundef nonnull align 8 dereferenceable(70) %0) #0 comdat align 2 {
  %2 = alloca ptr, align 8
  store ptr %0, ptr %2, align 8
  %3 = load ptr, ptr %2, align 8
  %4 = getelementptr inbounds nuw %"class.llvm::MachineInstr", ptr %3, i32 0, i32 2
  %5 = load ptr, ptr %4, align 8
  ret ptr %5
}

; Function Attrs: mustprogress nounwind uwtable
define dso_local noundef ptr @_ZNK4llvm12MachineInstr10getRegInfoEv(ptr noundef nonnull align 8 dereferenceable(70) %0) #0 align 2 {
  %2 = alloca ptr, align 8
  %3 = alloca ptr, align 8
  %4 = alloca ptr, align 8
  store ptr %0, ptr %3, align 8
  %5 = load ptr, ptr %3, align 8
  %6 = call noundef ptr @_ZNK4llvm12MachineInstr9getParentEv(ptr noundef nonnull align 8 dereferenceable(70) %5)
  store ptr %6, ptr %4, align 8
  %7 = load ptr, ptr %4, align 8
  %8 = icmp ne ptr %7, null
  br i1 %8, label %9, label %13

9:                                                ; preds = %1
  %10 = load ptr, ptr %4, align 8
  %11 = call noundef ptr @_ZNK4llvm17MachineBasicBlock9getParentEv(ptr noundef nonnull align 8 dereferenceable(288) %10)
  %12 = call noundef nonnull align 8 dereferenceable(512) ptr @_ZNK4llvm15MachineFunction10getRegInfoEv(ptr noundef nonnull align 8 dereferenceable(1041) %11)
  store ptr %12, ptr %2, align 8
  br label %14

13:                                               ; preds = %1
  store ptr null, ptr %2, align 8
  br label %14

14:                                               ; preds = %13, %9
  %15 = load ptr, ptr %2, align 8
  ret ptr %15
}